target datalayout = "e-m:e-p270:32:32-p271:32:32-p272:64:64-i64:64-i128:128-f80:128-n8:16:32:64-S128"
target triple = "x86_64-pc-linux-gnu"

%"struct.std::pair.2" = type <{ i64, i8, [7 x i8] }>

; Function Attrs: mustprogress uwtable
define noundef zeroext i1 @_ZN6google8protobuf2io16CodedInputStream16ReadVarint32SlowEPj(ptr noundef nonnull align 8 dereferenceable(80) %0, ptr noundef %1) #5 align 2 {
  %3 = alloca ptr, align 8
  %4 = alloca ptr, align 8
  %5 = alloca %"struct.std::pair.2", align 8
  %6 = alloca { i64, i8 }, align 8
  store ptr %0, ptr %3, align 8, !tbaa !3
  store ptr %1, ptr %4, align 8, !tbaa !27
  %7 = load ptr, ptr %3, align 8
  call void @llvm.lifetime.start.p0(i64 16, ptr %5) #3
  %8 = call { i64, i8 } @_ZN6google8protobuf2io16CodedInputStream20ReadVarint64FallbackEv(ptr noundef nonnull align 8 dereferenceable(80) %7)
  store { i64, i8 } %8, ptr %6, align 8
  call void @llvm.memcpy.p0.p0.i64(ptr align 8 %5, ptr align 8 %6, i64 9, i1 false)
  %9 = getelementptr inbounds nuw %"struct.std::pair.2", ptr %5, i32 0, i32 0
  %10 = load i64, ptr %9, align 8, !tbaa !54
  %11 = trunc i64 %10 to i32
  %12 = load ptr, ptr %4, align 8, !tbaa !27
  store i32 %11, ptr %12, align 4, !tbaa !18
  %13 = getelementptr inbounds nuw %"struct.std::pair.2", ptr %5, i32 0, i32 1
  %14 = load i8, ptr %13, align 8, !tbaa !56, !range !36, !noundef !37
  %15 = trunc i8 %14 to i1
  call void @llvm.lifetime.end.p0(i64 16, ptr %5) #3
  ret i1 %15
}