; Function Attrs: mustprogress uwtable
define noundef zeroext i1 @_ZN6google8protobuf2io16CodedInputStream16ReadVarint32SlowEPj(ptr noundef nonnull align 8 captures(none) dereferenceable(80) %0, ptr noundef writeonly captures(none) initializes((0, 4)) %1) local_unnamed_addr #4 align 2 {
  %3 = tail call { i64, i8 } @_ZN6google8protobuf2io16CodedInputStream20ReadVarint64FallbackEv(ptr noundef nonnull align 8 dereferenceable(80) %0)
  %.fca.0.extract = extractvalue { i64, i8 } %3, 0
  %.fca.1.extract = extractvalue { i64, i8 } %3, 1
  %4 = trunc i64 %.fca.0.extract to i32
  store i32 %4, ptr %1, align 4, !tbaa !23
  %5 = trunc i8 %.fca.1.extract to i1
  ret i1 %5
}